; Function Attrs: mustprogress uwtable
define hidden void @_ZN16fpa2bv_converter7mk_pinfEP4sortR7obj_refI4expr11ast_managerE(ptr noundef nonnull align 8 dereferenceable(496) %0, ptr noundef %1, ptr noundef nonnull align 8 captures(none) dereferenceable(16) %2) local_unnamed_addr #3 align 2 personality ptr @__gxx_personality_v0 {
  %4 = alloca %class.obj_ref, align 8
  %5 = getelementptr inbounds nuw i8, ptr %0, i64 288
  %6 = tail call noundef i32 @_ZNK8fpa_util9get_sbitsEP4sort(ptr noundef nonnull align 8 dereferenceable(64) %5, ptr noundef %1)
  %7 = tail call noundef i32 @_ZNK8fpa_util9get_ebitsEP4sort(ptr noundef nonnull align 8 dereferenceable(64) %5, ptr noundef %1)
  call void @llvm.lifetime.start.p0(i64 16, ptr nonnull %4) #23
  %8 = getelementptr inbounds nuw i8, ptr %0, i64 8
  %9 = load ptr, ptr %8, align 8, !tbaa !130
  store ptr null, ptr %4, align 8, !tbaa !164
  %10 = getelementptr inbounds nuw i8, ptr %4, i64 8
  store ptr %9, ptr %10, align 8, !tbaa !6
  invoke void @_ZN16fpa2bv_converter10mk_top_expEjR7obj_refI4expr11ast_managerE(ptr noundef nonnull align 8 dereferenceable(496) %0, i32 noundef %7, ptr noundef nonnull align 8 dereferenceable(16) %4)
          to label %11 unwind label %47

11:                                               ; preds = %3
  %12 = getelementptr inbounds nuw i8, ptr %0, i64 88
  %13 = invoke noundef ptr @_ZNK7bv_util10mk_numeralEmj(ptr noundef nonnull align 8 dereferenceable(24) %12, i64 noundef 0, i32 noundef 1)
          to label %14 unwind label %47

14:                                               ; preds = %11
  %15 = load ptr, ptr %4, align 8, !tbaa !164
  %16 = add i32 %6, -1
  %17 = invoke noundef ptr @_ZNK7bv_util10mk_numeralEmj(ptr noundef nonnull align 8 dereferenceable(24) %12, i64 noundef 0, i32 noundef %16)
          to label %18 unwind label %47

18:                                               ; preds = %14
  %19 = load ptr, ptr %5, align 8, !tbaa !176
  %20 = getelementptr inbounds nuw i8, ptr %0, i64 304
  %21 = load i32, ptr %20, align 8, !tbaa !158
  %22 = invoke noundef ptr @_ZN11ast_manager6mk_appEiiP4exprS1_S1_(ptr noundef nonnull align 8 dereferenceable(976) %19, i32 noundef %21, i32 noundef 37, ptr noundef %13, ptr noundef %15, ptr noundef %17)
          to label %_ZN8fpa_util5mk_fpEP4exprS1_S1_.exit unwind label %47

_ZN8fpa_util5mk_fpEP4exprS1_S1_.exit:             ; preds = %18
  %.not.i = icmp eq ptr %22, null
  br i1 %.not.i, label %26, label %_ZN11ast_manager7inc_refEP3ast.exit.i

_ZN11ast_manager7inc_refEP3ast.exit.i:            ; preds = %_ZN8fpa_util5mk_fpEP4exprS1_S1_.exit
  %23 = getelementptr inbounds nuw i8, ptr %22, i64 8
  %24 = load i32, ptr %23, align 4, !tbaa !125
  %25 = add i32 %24, 1
  store i32 %25, ptr %23, align 4, !tbaa !125
  br label %26

26:                                               ; preds = %_ZN11ast_manager7inc_refEP3ast.exit.i, %_ZN8fpa_util5mk_fpEP4exprS1_S1_.exit
  %27 = load ptr, ptr %2, align 8, !tbaa !164
  %.not.i4.i = icmp eq ptr %27, null
  br i1 %.not.i4.i, label %36, label %28

28:                                               ; preds = %26
  %29 = getelementptr inbounds nuw i8, ptr %2, i64 8
  %30 = load ptr, ptr %29, align 8, !tbaa !166
  %31 = getelementptr inbounds nuw i8, ptr %27, i64 8
  %32 = load i32, ptr %31, align 4, !tbaa !125
  %33 = add i32 %32, -1
  store i32 %33, ptr %31, align 4, !tbaa !125
  %34 = icmp eq i32 %33, 0
  br i1 %34, label %35, label %36

35:                                               ; preds = %28
  invoke void @_ZN11ast_manager11delete_nodeEP3ast(ptr noundef nonnull align 8 dereferenceable(976) %30, ptr noundef nonnull %27)
          to label %36 unwind label %47

36:                                               ; preds = %28, %26, %35
  store ptr %22, ptr %2, align 8, !tbaa !164
  %.not.i.i = icmp eq ptr %15, null
  br i1 %.not.i.i, label %_ZN7obj_refI4expr11ast_managerED2Ev.exit, label %37

37:                                               ; preds = %36
  %38 = load ptr, ptr %10, align 8, !tbaa !166
  %39 = getelementptr inbounds nuw i8, ptr %15, i64 8
  %40 = load i32, ptr %39, align 4, !tbaa !125
  %41 = add i32 %40, -1
  store i32 %41, ptr %39, align 4, !tbaa !125
  %42 = icmp eq i32 %41, 0
  br i1 %42, label %43, label %_ZN7obj_refI4expr11ast_managerED2Ev.exit

43:                                               ; preds = %37
  invoke void @_ZN11ast_manager11delete_nodeEP3ast(ptr noundef nonnull align 8 dereferenceable(976) %38, ptr noundef nonnull %15)
          to label %_ZN7obj_refI4expr11ast_managerED2Ev.exit unwind label %44

44:                                               ; preds = %43
  %45 = landingpad { ptr, i32 }
          catch ptr null
  %46 = extractvalue { ptr, i32 } %45, 0
  tail call void @__clang_call_terminate(ptr %46) #24
  unreachable

_ZN7obj_refI4expr11ast_managerED2Ev.exit:         ; preds = %36, %37, %43
  call void @llvm.lifetime.end.p0(i64 16, ptr nonnull %4) #23
  ret void

47:                                               ; preds = %35, %18, %14, %11, %3
  %48 = landingpad { ptr, i32 }
          cleanup
  call void @_ZN7obj_refI4expr11ast_managerED2Ev(ptr noundef nonnull align 8 dereferenceable(16) %4) #23
  call void @llvm.lifetime.end.p0(i64 16, ptr nonnull %4) #23
  resume { ptr, i32 } %48
}